target datalayout = "e-m:e-p270:32:32-p271:32:32-p272:64:64-i64:64-i128:128-f80:128-n8:16:32:64-S128"
target triple = "x86_64-pc-linux-gnu"

%struct.Resampler = type { ptr, ptr, ptr, ptr, ptr, ptr, ptr, ptr }
%struct.SwrContext = type { ptr, i32, ptr, i32, i32, i32, %struct.AVChannelLayout, %struct.AVChannelLayout, %struct.AVChannelLayout, i32, i32, i32, float, float, float, float, float, i32, ptr, i32, %struct.AVChannelLayout, %struct.AVChannelLayout, %struct.AVChannelLayout, i32, i32, %struct.DitherContext, i32, i32, i32, i32, double, i32, double, double, i32, float, float, float, float, float, i64, i32, i32, i32, %struct.AudioData, %struct.AudioData, %struct.AudioData, %struct.AudioData, %struct.AudioData, %struct.AudioData, %struct.AudioData, %struct.AudioData, i32, i32, i32, i32, i64, i64, i32, double, ptr, ptr, ptr, ptr, ptr, [64 x [64 x double]], [64 x [64 x float]], ptr, ptr, ptr, ptr, [64 x [64 x i32]], [64 x [65 x i8]], ptr, ptr, ptr, ptr, ptr }
%struct.AVChannelLayout = type { i32, i32, %union.anon, ptr }
%union.anon = type { i64 }
%struct.DitherContext = type { i32, i32, float, float, i32, float, float, i32, [20 x float], [64 x [40 x float]], %struct.AudioData, %struct.AudioData, i32 }
%struct.AudioData = type { [64 x ptr], ptr, i32, i32, i32, i32, i32 }

@.str.20 = private unnamed_addr constant [30 x i8] c"Assertion %s failed at %s:%d\0A\00", align 1
@.str.22 = private unnamed_addr constant [27 x i8] c"libswresample/swresample.c\00", align 1
@.str.35 = private unnamed_addr constant [40 x i8] c"s->out_sample_rate == s->in_sample_rate\00", align 1

; Function Attrs: nounwind uwtable
define i32 @swr_get_out_samples(ptr noundef %0, i32 noundef %1) #0 {
  %3 = alloca i32, align 4
  %4 = alloca ptr, align 8
  %5 = alloca i32, align 4
  %6 = alloca i64, align 8
  %7 = alloca i32, align 4
  store ptr %0, ptr %4, align 8, !tbaa !4
  store i32 %1, ptr %5, align 4, !tbaa !31
  call void @llvm.lifetime.start.p0(i64 8, ptr %6) #9
  %8 = load i32, ptr %5, align 4, !tbaa !31
  %9 = icmp slt i32 %8, 0
  br i1 %9, label %10, label %11

10:                                               ; preds = %2
  store i32 -22, ptr %3, align 4
  store i32 1, ptr %7, align 4
  br label %64

11:                                               ; preds = %2
  %12 = load ptr, ptr %4, align 8, !tbaa !4
  %13 = getelementptr inbounds nuw %struct.SwrContext, ptr %12, i32 0, i32 64
  %14 = load ptr, ptr %13, align 8, !tbaa !35
  %15 = icmp ne ptr %14, null
  br i1 %15, label %16, label %38

16:                                               ; preds = %11
  %17 = load ptr, ptr %4, align 8, !tbaa !4
  %18 = getelementptr inbounds nuw %struct.SwrContext, ptr %17, i32 0, i32 63
  %19 = load ptr, ptr %18, align 8, !tbaa !72
  %20 = icmp ne ptr %19, null
  br i1 %20, label %21, label %38

21:                                               ; preds = %16
  %22 = load ptr, ptr %4, align 8, !tbaa !4
  %23 = getelementptr inbounds nuw %struct.SwrContext, ptr %22, i32 0, i32 64
  %24 = load ptr, ptr %23, align 8, !tbaa !35
  %25 = getelementptr inbounds nuw %struct.Resampler, ptr %24, i32 0, i32 7
  %26 = load ptr, ptr %25, align 8, !tbaa !139
  %27 = icmp ne ptr %26, null
  br i1 %27, label %29, label %28

28:                                               ; preds = %21
  store i32 -38, ptr %3, align 4
  store i32 1, ptr %7, align 4
  br label %64

29:                                               ; preds = %21
  %30 = load ptr, ptr %4, align 8, !tbaa !4
  %31 = getelementptr inbounds nuw %struct.SwrContext, ptr %30, i32 0, i32 64
  %32 = load ptr, ptr %31, align 8, !tbaa !35
  %33 = getelementptr inbounds nuw %struct.Resampler, ptr %32, i32 0, i32 7
  %34 = load ptr, ptr %33, align 8, !tbaa !139
  %35 = load ptr, ptr %4, align 8, !tbaa !4
  %36 = load i32, ptr %5, align 4, !tbaa !31
  %37 = call i64 %34(ptr noundef %35, i32 noundef %36)
  store i64 %37, ptr %6, align 8, !tbaa !137
  br label %57

38:                                               ; preds = %16, %11
  %39 = load ptr, ptr %4, align 8, !tbaa !4
  %40 = getelementptr inbounds nuw %struct.SwrContext, ptr %39, i32 0, i32 53
  %41 = load i32, ptr %40, align 4, !tbaa !39
  %42 = load i32, ptr %5, align 4, !tbaa !31
  %43 = add nsw i32 %41, %42
  %44 = sext i32 %43 to i64
  store i64 %44, ptr %6, align 8, !tbaa !137
  br label %45

45:                                               ; preds = %38
  %46 = load ptr, ptr %4, align 8, !tbaa !4
  %47 = getelementptr inbounds nuw %struct.SwrContext, ptr %46, i32 0, i32 10
  %48 = load i32, ptr %47, align 4, !tbaa !46
  %49 = load ptr, ptr %4, align 8, !tbaa !4
  %50 = getelementptr inbounds nuw %struct.SwrContext, ptr %49, i32 0, i32 9
  %51 = load i32, ptr %50, align 8, !tbaa !45
  %52 = icmp eq i32 %48, %51
  br i1 %52, label %54, label %53

53:                                               ; preds = %45
  call void (ptr, i32, ptr, ...) @av_log(ptr noundef null, i32 noundef 0, ptr noundef @.str.20, ptr noundef @.str.35, ptr noundef @.str.22, i32 noundef 895)
  call void @abort() #10
  unreachable

54:                                               ; preds = %45
  br label %55

55:                                               ; preds = %54
  br label %56

56:                                               ; preds = %55
  br label %57

57:                                               ; preds = %56, %29
  %58 = load i64, ptr %6, align 8, !tbaa !137
  %59 = icmp sgt i64 %58, 2147483647
  br i1 %59, label %60, label %61

60:                                               ; preds = %57
  store i32 -22, ptr %3, align 4
  store i32 1, ptr %7, align 4
  br label %64

61:                                               ; preds = %57
  %62 = load i64, ptr %6, align 8, !tbaa !137
  %63 = trunc i64 %62 to i32
  store i32 %63, ptr %3, align 4
  store i32 1, ptr %7, align 4
  br label %64

64:                                               ; preds = %61, %60, %28, %10
  call void @llvm.lifetime.end.p0(i64 8, ptr %6) #9
  %65 = load i32, ptr %3, align 4
  ret i32 %65
}