; Function Attrs: nounwind uwtable
define i32 @swr_get_out_samples(ptr noundef %0, i32 noundef %1) local_unnamed_addr #1 {
  %3 = icmp slt i32 %1, 0
  br i1 %3, label %29, label %4

4:                                                ; preds = %2
  %5 = getelementptr inbounds nuw i8, ptr %0, i64 16224
  %6 = load ptr, ptr %5, align 8, !tbaa !27
  %.not = icmp eq ptr %6, null
  br i1 %.not, label %15, label %7

7:                                                ; preds = %4
  %8 = getelementptr inbounds nuw i8, ptr %0, i64 16216
  %9 = load ptr, ptr %8, align 8, !tbaa !65
  %.not17 = icmp eq ptr %9, null
  br i1 %.not17, label %15, label %10

10:                                               ; preds = %7
  %11 = getelementptr inbounds nuw i8, ptr %6, i64 56
  %12 = load ptr, ptr %11, align 8, !tbaa !127
  %.not18 = icmp eq ptr %12, null
  br i1 %.not18, label %29, label %13

13:                                               ; preds = %10
  %14 = tail call i64 %12(ptr noundef nonnull %0, i32 noundef %1) #12
  br label %26

15:                                               ; preds = %7, %4
  %16 = getelementptr inbounds nuw i8, ptr %0, i64 16148
  %17 = load i32, ptr %16, align 4, !tbaa !31
  %18 = add nsw i32 %17, %1
  %19 = sext i32 %18 to i64
  %20 = getelementptr inbounds nuw i8, ptr %0, i64 116
  %21 = load i32, ptr %20, align 4, !tbaa !39
  %22 = getelementptr inbounds nuw i8, ptr %0, i64 112
  %23 = load i32, ptr %22, align 8, !tbaa !38
  %24 = icmp eq i32 %21, %23
  br i1 %24, label %26, label %25

25:                                               ; preds = %15
  tail call void (ptr, i32, ptr, ...) @av_log(ptr noundef null, i32 noundef 0, ptr noundef nonnull @.str.20, ptr noundef nonnull @.str.35, ptr noundef nonnull @.str.22, i32 noundef 895) #12
  tail call void @abort() #13
  unreachable

26:                                               ; preds = %15, %13
  %.0 = phi i64 [ %14, %13 ], [ %19, %15 ]
  %27 = icmp sgt i64 %.0, 2147483647
  %28 = trunc i64 %.0 to i32
  %spec.select = select i1 %27, i32 -22, i32 %28
  br label %29

29:                                               ; preds = %26, %10, %2
  %.013 = phi i32 [ -22, %2 ], [ -38, %10 ], [ %spec.select, %26 ]
  ret i32 %.013
}